target datalayout = "e-m:e-p270:32:32-p271:32:32-p272:64:64-i64:64-i128:128-f80:128-n8:16:32:64-S128"
target triple = "x86_64-pc-linux-gnu"

@stderr = external global ptr, align 8
@.str.19 = private unnamed_addr constant [152 x i8] c"Usage: %s [-options] [file_name]\0A\0ARead the files specified and\0Acreate a binary file [package-name]_[bundle-name].spp with the StringPrep profile data\0A\0A\00", align 1
@.str.20 = private unnamed_addr constant [152 x i8] c"Options:\0A\09-h or -? or --help       print this usage text\0A\09-v or --verbose          verbose output\0A\09-c or --copyright        include a copyright notice\0A\00", align 1
@.str.24 = private unnamed_addr constant [181 x i8] c"\09-k or --check-bidi       turn on the option for checking for BiDi in the profile\0A\09-u or --unicode          version of Unicode to be used with this profile followed by the version\0A\00", align 1

; Function Attrs: nounwind uwtable
define internal i32 @printHelp(i32 noundef %0, ptr noundef %1) #0 {
  %3 = alloca i32, align 4
  %4 = alloca ptr, align 8
  store i32 %0, ptr %3, align 4, !tbaa !4
  store ptr %1, ptr %4, align 8, !tbaa !8
  %5 = load ptr, ptr @stderr, align 8, !tbaa !16
  %6 = load ptr, ptr %4, align 8, !tbaa !8
  %7 = getelementptr inbounds ptr, ptr %6, i64 0
  %8 = load ptr, ptr %7, align 8, !tbaa !12
  %9 = call i32 (ptr, ptr, ...) @fprintf(ptr noundef %5, ptr noundef @.str.19, ptr noundef %8) #7
  %10 = load ptr, ptr @stderr, align 8, !tbaa !16
  %11 = call i32 (ptr, ptr, ...) @fprintf(ptr noundef %10, ptr noundef @.str.20) #7
  %12 = load ptr, ptr @stderr, align 8, !tbaa !16
  %13 = call ptr @u_getDataDirectory_77()
  %14 = call i32 (ptr, ptr, ...) @fprintf(ptr noundef %12, ptr noundef @.str.21, ptr noundef %13) #7
  %15 = load ptr, ptr @stderr, align 8, !tbaa !16
  %16 = call i32 (ptr, ptr, ...) @fprintf(ptr noundef %15, ptr noundef @.str.22) #7
  %17 = load ptr, ptr @stderr, align 8, !tbaa !16
  %18 = call i32 (ptr, ptr, ...) @fprintf(ptr noundef %17, ptr noundef @.str.23) #7
  %19 = load ptr, ptr @stderr, align 8, !tbaa !16
  %20 = call i32 (ptr, ptr, ...) @fprintf(ptr noundef %19, ptr noundef @.str.24) #7
  %21 = load i32, ptr %3, align 4, !tbaa !4
  %22 = icmp slt i32 %21, 0
  %23 = select i1 %22, i32 1, i32 0
  ret i32 %23
}