; Function Attrs: cold nounwind uwtable
define internal fastcc noundef range(i32 0, 2) i32 @printHelp(i32 noundef %0, ptr %.0.val) unnamed_addr #4 {
  %2 = load ptr, ptr @stderr, align 8, !tbaa !12
  %3 = tail call i32 (ptr, ptr, ...) @fprintf(ptr noundef %2, ptr noundef nonnull @.str.19, ptr noundef %.0.val) #13
  %4 = load ptr, ptr @stderr, align 8, !tbaa !12
  %5 = tail call i64 @fwrite(ptr nonnull @.str.20, i64 151, i64 1, ptr %4) #17
  %6 = load ptr, ptr @stderr, align 8, !tbaa !12
  %7 = tail call ptr @u_getDataDirectory_77() #12
  %8 = tail call i32 (ptr, ptr, ...) @fprintf(ptr noundef %6, ptr noundef nonnull @.str.21, ptr noundef %7) #13
  %9 = load ptr, ptr @stderr, align 8, !tbaa !12
  %10 = tail call i64 @fwrite(ptr nonnull @.str.22, i64 226, i64 1, ptr %9) #17
  %11 = load ptr, ptr @stderr, align 8, !tbaa !12
  %12 = tail call i64 @fwrite(ptr nonnull @.str.23, i64 282, i64 1, ptr %11) #17
  %13 = load ptr, ptr @stderr, align 8, !tbaa !12
  %14 = tail call i64 @fwrite(ptr nonnull @.str.24, i64 180, i64 1, ptr %13) #17
  %.lobit = lshr i32 %0, 31
  ret i32 %.lobit
}